; ModuleID = '28/102.c'
source_filename = "28/102.c"
target datalayout = "e-m:e-p270:32:32-p271:32:32-p272:64:64-i64:64-f80:128-n8:16:32:64-S128"
target triple = "x86_64-pc-linux-gnu"

@.str = private unnamed_addr constant [3 x i8] c"%d\00", align 1
@.str.1 = private unnamed_addr constant [4 x i8] c",%d\00", align 1

; Function Attrs: noinline nounwind uwtable
define dso_local void @main() #0 {
  %1 = alloca [10000 x i8], align 16
  %2 = alloca i32, align 4
  %3 = alloca i32, align 4
  %4 = alloca [400 x i32], align 16
  %5 = alloca i32, align 4
  %6 = alloca i8, align 1
  store i32 1, i32* %5, align 4
  %7 = getelementptr inbounds [10000 x i8], [10000 x i8]* %1, i64 0, i64 0
  %8 = call i32 (i8*, ...) bitcast (i32 (...)* @gets to i32 (i8*, ...)*)(i8* %7)
  store i32 0, i32* %3, align 4
  store i32 0, i32* %5, align 4
  store i32 0, i32* %2, align 4
  br label %9

9:                                                ; preds = %31, %0
  %10 = load i32, i32* %2, align 4
  %11 = sext i32 %10 to i64
  %12 = getelementptr inbounds [10000 x i8], [10000 x i8]* %1, i64 0, i64 %11
  %13 = load i8, i8* %12, align 1
  store i8 %13, i8* %6, align 1
  %14 = sext i8 %13 to i32
  %15 = icmp ne i32 %14, 0
  br i1 %15, label %16, label %34

16:                                               ; preds = %9
  %17 = load i8, i8* %6, align 1
  %18 = sext i8 %17 to i32
  %19 = icmp ne i32 %18, 32
  br i1 %19, label %20, label %23

20:                                               ; preds = %16
  %21 = load i32, i32* %3, align 4
  %22 = add nsw i32 %21, 1
  store i32 %22, i32* %3, align 4
  br label %30

23:                                               ; preds = %16
  %24 = load i32, i32* %3, align 4
  %25 = load i32, i32* %5, align 4
  %26 = sext i32 %25 to i64
  %27 = getelementptr inbounds [400 x i32], [400 x i32]* %4, i64 0, i64 %26
  store i32 %24, i32* %27, align 4
  %28 = load i32, i32* %5, align 4
  %29 = add nsw i32 %28, 1
  store i32 %29, i32* %5, align 4
  store i32 0, i32* %3, align 4
  br label %30

30:                                               ; preds = %23, %20
  br label %31

31:                                               ; preds = %30
  %32 = load i32, i32* %2, align 4
  %33 = add nsw i32 %32, 1
  store i32 %33, i32* %2, align 4
  br label %9

34:                                               ; preds = %9
  %35 = load i32, i32* %5, align 4
  %36 = icmp eq i32 %35, 0
  br i1 %36, label %37, label %40

37:                                               ; preds = %34
  %38 = load i32, i32* %3, align 4
  %39 = call i32 (i8*, ...) @printf(i8* getelementptr inbounds ([3 x i8], [3 x i8]* @.str, i64 0, i64 0), i32 %38)
  br label %71

40:                                               ; preds = %34
  %41 = load i32, i32* %5, align 4
  %42 = icmp sgt i32 %41, 0
  br i1 %42, label %43, label %70

43:                                               ; preds = %40
  %44 = getelementptr inbounds [400 x i32], [400 x i32]* %4, i64 0, i64 0
  %45 = load i32, i32* %44, align 16
  %46 = call i32 (i8*, ...) @printf(i8* getelementptr inbounds ([3 x i8], [3 x i8]* @.str, i64 0, i64 0), i32 %45)
  store i32 1, i32* %2, align 4
  br label %47

47:                                               ; preds = %64, %43
  %48 = load i32, i32* %2, align 4
  %49 = load i32, i32* %5, align 4
  %50 = icmp slt i32 %48, %49
  br i1 %50, label %51, label %67

51:                                               ; preds = %47
  %52 = load i32, i32* %2, align 4
  %53 = sext i32 %52 to i64
  %54 = getelementptr inbounds [400 x i32], [400 x i32]* %4, i64 0, i64 %53
  %55 = load i32, i32* %54, align 4
  %56 = icmp ne i32 %55, 0
  br i1 %56, label %57, label %63

57:                                               ; preds = %51
  %58 = load i32, i32* %2, align 4
  %59 = sext i32 %58 to i64
  %60 = getelementptr inbounds [400 x i32], [400 x i32]* %4, i64 0, i64 %59
  %61 = load i32, i32* %60, align 4
  %62 = call i32 (i8*, ...) @printf(i8* getelementptr inbounds ([4 x i8], [4 x i8]* @.str.1, i64 0, i64 0), i32 %61)
  br label %63

63:                                               ; preds = %57, %51
  br label %64

64:                                               ; preds = %63
  %65 = load i32, i32* %2, align 4
  %66 = add nsw i32 %65, 1
  store i32 %66, i32* %2, align 4
  br label %47

67:                                               ; preds = %47
  %68 = load i32, i32* %3, align 4
  %69 = call i32 (i8*, ...) @printf(i8* getelementptr inbounds ([4 x i8], [4 x i8]* @.str.1, i64 0, i64 0), i32 %68)
  br label %70

70:                                               ; preds = %67, %40
  br label %71

71:                                               ; preds = %70, %37
  ret void
}

declare dso_local i32 @gets(...) #1

declare dso_local i32 @printf(i8*, ...) #1


!llvm.module.flags = !{!0}
!llvm.ident = !{!1}

!0 = !{i32 1, !"wchar_size", i32 4}
!1 = !{!"clang version 10.0.0-4ubuntu1 "}
