; ModuleID = 'source-C-CXX/27/102.c'
source_filename = "source-C-CXX/27/102.c"
target datalayout = "e-m:e-p270:32:32-p271:32:32-p272:64:64-i64:64-f80:128-n8:16:32:64-S128"
target triple = "x86_64-pc-linux-gnu"

@.str = private unnamed_addr constant [3 x i8] c"%d\00", align 1
@.str.1 = private unnamed_addr constant [4 x i8] c",%d\00", align 1

; Function Attrs: nounwind sspstrong uwtable
define dso_local void @main() local_unnamed_addr #0 {
  %1 = alloca [10000 x i8], align 16
  %2 = alloca [400 x i32], align 16
  %3 = getelementptr inbounds [10000 x i8], [10000 x i8]* %1, i64 0, i64 0
  call void @llvm.lifetime.start.p0i8(i64 10000, i8* nonnull %3) #4
  %4 = bitcast [400 x i32]* %2 to i8*
  call void @llvm.lifetime.start.p0i8(i64 1600, i8* nonnull %4) #4
  %5 = call i32 (i8*, ...) bitcast (i32 (...)* @gets to i32 (i8*, ...)*)(i8* nonnull %3) #4
  br label %6

6:                                                ; preds = %18, %0
  %7 = phi i64 [ %21, %18 ], [ 0, %0 ]
  %8 = phi i32 [ %19, %18 ], [ 0, %0 ]
  %9 = phi i32 [ %20, %18 ], [ 0, %0 ]
  %10 = getelementptr inbounds [10000 x i8], [10000 x i8]* %1, i64 0, i64 %7
  %11 = load i8, i8* %10, align 1, !tbaa !5
  switch i8 %11, label %12 [
    i8 0, label %22
    i8 32, label %14
  ]

12:                                               ; preds = %6
  %13 = add nsw i32 %8, 1
  br label %18

14:                                               ; preds = %6
  %15 = sext i32 %9 to i64
  %16 = getelementptr inbounds [400 x i32], [400 x i32]* %2, i64 0, i64 %15
  store i32 %8, i32* %16, align 4, !tbaa !8
  %17 = add nsw i32 %9, 1
  br label %18

18:                                               ; preds = %12, %14
  %19 = phi i32 [ %13, %12 ], [ 0, %14 ]
  %20 = phi i32 [ %9, %12 ], [ %17, %14 ]
  %21 = add nuw i64 %7, 1
  br label %6, !llvm.loop !10

22:                                               ; preds = %6
  %23 = icmp eq i32 %9, 0
  br i1 %23, label %43, label %24

24:                                               ; preds = %22
  %25 = icmp sgt i32 %9, 0
  br i1 %25, label %26, label %46

26:                                               ; preds = %24
  %27 = getelementptr inbounds [400 x i32], [400 x i32]* %2, i64 0, i64 0
  %28 = load i32, i32* %27, align 16, !tbaa !8
  %29 = call i32 (i8*, ...) @printf(i8* nonnull dereferenceable(1) getelementptr inbounds ([3 x i8], [3 x i8]* @.str, i64 0, i64 0), i32 %28)
  %30 = icmp eq i32 %9, 1
  br i1 %30, label %43, label %31

31:                                               ; preds = %26
  %32 = zext i32 %9 to i64
  br label %33

33:                                               ; preds = %31, %40
  %34 = phi i64 [ 1, %31 ], [ %41, %40 ]
  %35 = getelementptr inbounds [400 x i32], [400 x i32]* %2, i64 0, i64 %34
  %36 = load i32, i32* %35, align 4, !tbaa !8
  %37 = icmp eq i32 %36, 0
  br i1 %37, label %40, label %38

38:                                               ; preds = %33
  %39 = call i32 (i8*, ...) @printf(i8* nonnull dereferenceable(1) getelementptr inbounds ([4 x i8], [4 x i8]* @.str.1, i64 0, i64 0), i32 %36)
  br label %40

40:                                               ; preds = %33, %38
  %41 = add nuw nsw i64 %34, 1
  %42 = icmp eq i64 %41, %32
  br i1 %42, label %43, label %33, !llvm.loop !12

43:                                               ; preds = %40, %26, %22
  %44 = phi i8* [ getelementptr inbounds ([3 x i8], [3 x i8]* @.str, i64 0, i64 0), %22 ], [ getelementptr inbounds ([4 x i8], [4 x i8]* @.str.1, i64 0, i64 0), %26 ], [ getelementptr inbounds ([4 x i8], [4 x i8]* @.str.1, i64 0, i64 0), %40 ]
  %45 = call i32 (i8*, ...) @printf(i8* nonnull dereferenceable(1) %44, i32 %8)
  br label %46

46:                                               ; preds = %43, %24
  call void @llvm.lifetime.end.p0i8(i64 1600, i8* nonnull %4) #4
  call void @llvm.lifetime.end.p0i8(i64 10000, i8* nonnull %3) #4
  ret void
}

; Function Attrs: argmemonly mustprogress nofree nosync nounwind willreturn
declare void @llvm.lifetime.start.p0i8(i64 immarg, i8* nocapture) #1

declare i32 @gets(...) local_unnamed_addr #2

; Function Attrs: nofree nounwind
declare noundef i32 @printf(i8* nocapture noundef readonly, ...) local_unnamed_addr #3

; Function Attrs: argmemonly mustprogress nofree nosync nounwind willreturn
declare void @llvm.lifetime.end.p0i8(i64 immarg, i8* nocapture) #1


!llvm.module.flags = !{!0, !1, !2, !3}
!llvm.ident = !{!4}

!0 = !{i32 1, !"wchar_size", i32 4}
!1 = !{i32 7, !"PIC Level", i32 2}
!2 = !{i32 7, !"PIE Level", i32 2}
!3 = !{i32 7, !"uwtable", i32 1}
!4 = !{!"clang version 13.0.0"}
!5 = !{!6, !6, i64 0}
!6 = !{!"omnipotent char", !7, i64 0}
!7 = !{!"Simple C/C++ TBAA"}
!8 = !{!9, !9, i64 0}
!9 = !{!"int", !6, i64 0}
!10 = distinct !{!10, !11}
!11 = !{!"llvm.loop.mustprogress"}
!12 = distinct !{!12, !11}
